; Function Attrs: mustprogress nofree norecurse nosync nounwind willreturn memory(read, inaccessiblemem: none) uwtable
define hidden noundef zeroext i1 @_ZNK5array6solver13is_beta_redexEPN3euf5enodeES3_(ptr noundef nonnull readonly align 8 captures(none) dereferenceable(536) %0, ptr noundef readonly captures(none) %1, ptr noundef readonly captures(none) %2) unnamed_addr #9 align 2 {
  %4 = getelementptr inbounds nuw i8, ptr %0, i64 112
  %5 = load ptr, ptr %1, align 8, !tbaa !58
  %6 = load i32, ptr %4, align 8, !tbaa !135
  %7 = getelementptr inbounds nuw i8, ptr %5, i64 4
  %8 = load i32, ptr %7, align 4
  %9 = and i32 %8, 65535
  %10 = icmp eq i32 %9, 0
  br i1 %10, label %11, label %_ZNK17array_recognizers8is_storeEP4expr.exit

11:                                               ; preds = %3
  %12 = getelementptr inbounds nuw i8, ptr %5, i64 16
  %13 = load ptr, ptr %12, align 8, !tbaa !88
  %14 = getelementptr inbounds nuw i8, ptr %13, i64 24
  %15 = load ptr, ptr %14, align 8, !tbaa !92
  %.not.i.i.i.i = icmp eq ptr %15, null
  br i1 %.not.i.i.i.i, label %_ZNK17array_recognizers8is_storeEP4expr.exit, label %_ZNK17array_recognizers9is_selectEP4expr.exit

_ZNK17array_recognizers9is_selectEP4expr.exit:    ; preds = %11
  %16 = load i32, ptr %15, align 8, !tbaa !95
  %17 = icmp eq i32 %16, %6
  %18 = getelementptr inbounds nuw i8, ptr %15, i64 4
  %19 = load i32, ptr %18, align 4
  %20 = icmp eq i32 %19, 1
  %21 = select i1 %17, i1 %20, i1 false
  br i1 %21, label %22, label %_ZNK17array_recognizers6is_mapEP4expr.exit

22:                                               ; preds = %_ZNK17array_recognizers9is_selectEP4expr.exit
  %23 = getelementptr inbounds nuw i8, ptr %1, i64 176
  %24 = load ptr, ptr %23, align 8, !tbaa !85
  %25 = getelementptr inbounds nuw i8, ptr %24, i64 64
  %26 = load ptr, ptr %25, align 8, !tbaa !207
  %27 = getelementptr inbounds nuw i8, ptr %2, i64 64
  %28 = load ptr, ptr %27, align 8, !tbaa !207
  %29 = icmp eq ptr %26, %28
  br label %_ZNK17array_recognizers8is_storeEP4expr.exit

_ZNK17array_recognizers6is_mapEP4expr.exit:       ; preds = %_ZNK17array_recognizers9is_selectEP4expr.exit
  %30 = load i32, ptr %15, align 8, !tbaa !95
  %31 = icmp eq i32 %30, %6
  %32 = getelementptr inbounds nuw i8, ptr %15, i64 4
  %33 = load i32, ptr %32, align 4
  %34 = icmp eq i32 %33, 5
  %35 = select i1 %31, i1 %34, i1 false
  br i1 %35, label %_ZNK17array_recognizers8is_storeEP4expr.exit, label %.thread11

.thread11:                                        ; preds = %_ZNK17array_recognizers6is_mapEP4expr.exit
  %36 = load i32, ptr %15, align 8, !tbaa !95
  %37 = icmp eq i32 %36, %6
  %38 = getelementptr inbounds nuw i8, ptr %15, i64 4
  %39 = load i32, ptr %38, align 4
  %40 = icmp eq i32 %39, 0
  %41 = select i1 %37, i1 %40, i1 false
  br label %_ZNK17array_recognizers8is_storeEP4expr.exit

_ZNK17array_recognizers8is_storeEP4expr.exit:     ; preds = %11, %.thread11, %3, %_ZNK17array_recognizers6is_mapEP4expr.exit, %22
  %.0 = phi i1 [ %29, %22 ], [ true, %_ZNK17array_recognizers6is_mapEP4expr.exit ], [ %41, %.thread11 ], [ false, %3 ], [ false, %11 ]
  ret i1 %.0
}